target datalayout = "e-m:e-p270:32:32-p271:32:32-p272:64:64-i64:64-i128:128-f80:128-n8:16:32:64-S128"
target triple = "x86_64-pc-linux-gnu"

@_ZZN4absl13base_internal8SpinLock16EncodeWaitCyclesEllE12kMaxWaitTime = internal constant i64 536870911, align 8

; Function Attrs: inlinehint mustprogress nounwind uwtable
define linkonce_odr dso_local noundef nonnull align 8 dereferenceable(8) ptr @_ZSt3minIlERKT_S2_S2_(ptr noundef nonnull align 8 dereferenceable(8) %0, ptr noundef nonnull align 8 dereferenceable(8) %1) #6 comdat {
  %3 = alloca ptr, align 8
  %4 = alloca ptr, align 8
  %5 = alloca ptr, align 8
  store ptr %0, ptr %4, align 8, !tbaa !37
  store ptr %1, ptr %5, align 8, !tbaa !37
  %6 = load ptr, ptr %5, align 8, !tbaa !37
  %7 = load i64, ptr %6, align 8, !tbaa !28
  %8 = load ptr, ptr %4, align 8, !tbaa !37
  %9 = load i64, ptr %8, align 8, !tbaa !28
  %10 = icmp slt i64 %7, %9
  br i1 %10, label %11, label %13

11:                                               ; preds = %2
  %12 = load ptr, ptr %5, align 8, !tbaa !37
  store ptr %12, ptr %3, align 8
  br label %15

13:                                               ; preds = %2
  %14 = load ptr, ptr %4, align 8, !tbaa !37
  store ptr %14, ptr %3, align 8
  br label %15

15:                                               ; preds = %13, %11
  %16 = load ptr, ptr %3, align 8
  ret ptr %16
}

; Function Attrs: mustprogress uwtable
define dso_local noundef i32 @_ZN4absl13base_internal8SpinLock16EncodeWaitCyclesEll(i64 noundef %0, i64 noundef %1) #0 align 2 {
  %3 = alloca i32, align 4
  %4 = alloca i64, align 8
  %5 = alloca i64, align 8
  %6 = alloca i64, align 8
  %7 = alloca i32, align 4
  %8 = alloca i32, align 4
  %9 = alloca i32, align 4
  store i64 %0, ptr %4, align 8, !tbaa !28
  store i64 %1, ptr %5, align 8, !tbaa !28
  call void @llvm.lifetime.start.p0(i64 8, ptr %6) #10
  %10 = load i64, ptr %5, align 8, !tbaa !28
  %11 = load i64, ptr %4, align 8, !tbaa !28
  %12 = sub nsw i64 %10, %11
  %13 = ashr i64 %12, 7
  store i64 %13, ptr %6, align 8, !tbaa !28
  call void @llvm.lifetime.start.p0(i64 4, ptr %7) #10
  %14 = call noundef nonnull align 8 dereferenceable(8) ptr @_ZSt3minIlERKT_S2_S2_(ptr noundef nonnull align 8 dereferenceable(8) %6, ptr noundef nonnull align 8 dereferenceable(8) @_ZZN4absl13base_internal8SpinLock16EncodeWaitCyclesEllE12kMaxWaitTime)
  %15 = load i64, ptr %14, align 8, !tbaa !28
  %16 = shl i64 %15, 3
  %17 = trunc i64 %16 to i32
  store i32 %17, ptr %7, align 4, !tbaa !18
  %18 = load i32, ptr %7, align 4, !tbaa !18
  %19 = icmp eq i32 %18, 0
  br i1 %19, label %20, label %21

20:                                               ; preds = %2
  store i32 8, ptr %3, align 4
  store i32 1, ptr %8, align 4
  br label %28

21:                                               ; preds = %2
  call void @llvm.lifetime.start.p0(i64 4, ptr %9) #10
  store i32 16, ptr %9, align 4, !tbaa !18
  %22 = load i32, ptr %7, align 4, !tbaa !18
  %23 = icmp eq i32 %22, 8
  br i1 %23, label %24, label %25

24:                                               ; preds = %21
  store i32 16, ptr %3, align 4
  store i32 1, ptr %8, align 4
  br label %27

25:                                               ; preds = %21
  %26 = load i32, ptr %7, align 4, !tbaa !18
  store i32 %26, ptr %3, align 4
  store i32 1, ptr %8, align 4
  br label %27

27:                                               ; preds = %25, %24
  call void @llvm.lifetime.end.p0(i64 4, ptr %9) #10
  br label %28

28:                                               ; preds = %27, %20
  call void @llvm.lifetime.end.p0(i64 4, ptr %7) #10
  call void @llvm.lifetime.end.p0(i64 8, ptr %6) #10
  %29 = load i32, ptr %3, align 4
  ret i32 %29
}