; Function Attrs: mustprogress nofree norecurse nosync nounwind willreturn memory(none) uwtable
define dso_local noundef range(i32 1, -7) i32 @_ZN4absl13base_internal8SpinLock16EncodeWaitCyclesEll(i64 noundef %0, i64 noundef %1) local_unnamed_addr #4 align 2 {
  %3 = sub nsw i64 %1, %0
  %4 = ashr i64 %3, 7
  %.sroa.speculated = tail call i64 @llvm.smin.i64(i64 %4, i64 536870911)
  %.tr = trunc i64 %.sroa.speculated to i32
  %5 = shl i32 %.tr, 3
  switch i32 %5, label %6 [
    i32 0, label %8
    i32 8, label %7
  ]

6:                                                ; preds = %2
  br label %8

7:                                                ; preds = %2
  br label %8

8:                                                ; preds = %6, %2, %7
  %.0 = phi i32 [ 8, %2 ], [ %5, %6 ], [ 16, %7 ]
  ret i32 %.0
}